; Function Attrs: mustprogress nounwind uwtable
define dso_local void @_ZNK4llvm9KnownBits5printERNS_11raw_ostreamE(ptr nocapture noundef nonnull readonly align 8 dereferenceable(32) %0, ptr noundef nonnull align 8 dereferenceable(48) %1) local_unnamed_addr #0 align 2 {
  %3 = getelementptr inbounds nuw i8, ptr %0, i64 8
  %4 = load i32, ptr %3, align 8
  %.not29 = icmp eq i32 %4, 0
  br i1 %.not29, label %._crit_edge, label %.lr.ph

.lr.ph:                                           ; preds = %2
  %5 = getelementptr inbounds nuw i8, ptr %0, i64 16
  %6 = getelementptr inbounds i8, ptr %0, i64 24
  %7 = getelementptr inbounds nuw i8, ptr %1, i64 24
  %8 = getelementptr inbounds nuw i8, ptr %1, i64 32
  br label %9

9:                                                ; preds = %.lr.ph, %_ZN4llvm11raw_ostreamlsEPKc.exit
  %.028 = phi i32 [ 0, %.lr.ph ], [ %58, %_ZN4llvm11raw_ostreamlsEPKc.exit ]
  %10 = xor i32 %.028, -1
  %11 = add i32 %4, %10
  %12 = and i32 %11, 63
  %13 = zext nneg i32 %12 to i64
  %14 = shl nuw i64 1, %13
  %15 = load i32, ptr %3, align 8
  %16 = icmp ult i32 %15, 65
  %17 = load ptr, ptr %0, align 8
  %18 = lshr i32 %11, 6
  %19 = zext nneg i32 %18 to i64
  %20 = getelementptr inbounds i64, ptr %17, i64 %19
  %.in.i.i = select i1 %16, ptr %0, ptr %20
  %21 = load i64, ptr %.in.i.i, align 8
  %22 = and i64 %21, %14
  %.not = icmp eq i64 %22, 0
  %23 = load i32, ptr %6, align 8
  %24 = icmp ult i32 %23, 65
  %25 = load ptr, ptr %5, align 8
  %26 = getelementptr inbounds i64, ptr %25, i64 %19
  %.in.i.i19 = select i1 %24, ptr %5, ptr %26
  %27 = load i64, ptr %.in.i.i19, align 8
  %28 = and i64 %27, %14
  %.not26 = icmp eq i64 %28, 0
  %29 = load ptr, ptr %7, align 8
  %30 = load ptr, ptr %8, align 8
  %31 = icmp eq ptr %29, %30
  br i1 %.not, label %45, label %32

32:                                               ; preds = %9
  br i1 %.not26, label %39, label %33

33:                                               ; preds = %32
  br i1 %31, label %34, label %36

34:                                               ; preds = %33
  %35 = tail call noundef nonnull align 8 dereferenceable(48) ptr @_ZN4llvm11raw_ostream5writeEPKcm(ptr noundef nonnull align 8 dereferenceable(48) %1, ptr noundef nonnull @.str, i64 noundef 1) #11
  br label %_ZN4llvm11raw_ostreamlsEPKc.exit

36:                                               ; preds = %33
  store i8 33, ptr %30, align 1
  %37 = load ptr, ptr %8, align 8
  %38 = getelementptr inbounds i8, ptr %37, i64 1
  store ptr %38, ptr %8, align 8
  br label %_ZN4llvm11raw_ostreamlsEPKc.exit

39:                                               ; preds = %32
  br i1 %31, label %40, label %42

40:                                               ; preds = %39
  %41 = tail call noundef nonnull align 8 dereferenceable(48) ptr @_ZN4llvm11raw_ostream5writeEPKcm(ptr noundef nonnull align 8 dereferenceable(48) %1, ptr noundef nonnull @.str.1, i64 noundef 1) #11
  br label %_ZN4llvm11raw_ostreamlsEPKc.exit

42:                                               ; preds = %39
  store i8 48, ptr %30, align 1
  %43 = load ptr, ptr %8, align 8
  %44 = getelementptr inbounds i8, ptr %43, i64 1
  store ptr %44, ptr %8, align 8
  br label %_ZN4llvm11raw_ostreamlsEPKc.exit

45:                                               ; preds = %9
  br i1 %.not26, label %52, label %46

46:                                               ; preds = %45
  br i1 %31, label %47, label %49

47:                                               ; preds = %46
  %48 = tail call noundef nonnull align 8 dereferenceable(48) ptr @_ZN4llvm11raw_ostream5writeEPKcm(ptr noundef nonnull align 8 dereferenceable(48) %1, ptr noundef nonnull @.str.2, i64 noundef 1) #11
  br label %_ZN4llvm11raw_ostreamlsEPKc.exit

49:                                               ; preds = %46
  store i8 49, ptr %30, align 1
  %50 = load ptr, ptr %8, align 8
  %51 = getelementptr inbounds i8, ptr %50, i64 1
  store ptr %51, ptr %8, align 8
  br label %_ZN4llvm11raw_ostreamlsEPKc.exit

52:                                               ; preds = %45
  br i1 %31, label %53, label %55

53:                                               ; preds = %52
  %54 = tail call noundef nonnull align 8 dereferenceable(48) ptr @_ZN4llvm11raw_ostream5writeEPKcm(ptr noundef nonnull align 8 dereferenceable(48) %1, ptr noundef nonnull @.str.3, i64 noundef 1) #11
  br label %_ZN4llvm11raw_ostreamlsEPKc.exit

55:                                               ; preds = %52
  store i8 63, ptr %30, align 1
  %56 = load ptr, ptr %8, align 8
  %57 = getelementptr inbounds i8, ptr %56, i64 1
  store ptr %57, ptr %8, align 8
  br label %_ZN4llvm11raw_ostreamlsEPKc.exit

_ZN4llvm11raw_ostreamlsEPKc.exit:                 ; preds = %55, %53, %49, %47, %42, %40, %36, %34
  %58 = add nuw i32 %.028, 1
  %exitcond.not = icmp eq i32 %58, %4
  br i1 %exitcond.not, label %._crit_edge, label %9, !llvm.loop !439

._crit_edge:                                      ; preds = %_ZN4llvm11raw_ostreamlsEPKc.exit, %2
  ret void
}